Certificate:
    Data:
        Version: 3 (0x2)
        Serial Number: 1 (0x1)
        Signature Algorithm: sha1WithRSAEncryption
        Issuer: C=CN, ST=CQ, L=CQ, O=yiji, OU=yiji.com, CN=yiji.com
        Validity
            Not Before: May  8 07:02:21 2016 GMT
            Not After : May  8 07:02:21 2017 GMT
        Subject: C=CN, ST=CQ, O=yiji, OU=yiji.com, CN=yiji.com/emailAddress=kuli@yiji.com
        Subject Public Key Info:
            Public Key Algorithm: rsaEncryption
            RSA Public Key: (1024 bit)
                Modulus (1024 bit):
                    00:f3:28:92:d2:bc:82:d2:38:76:2e:95:98:d1:2e:
                    b8:6e:92:79:29:62:60:1c:c9:ca:38:ec:eb:30:2d:
                    94:25:91:9b:7e:3f:e2:78:78:a5:5c:eb:89:19:99:
                    b1:a6:8e:1f:68:f0:cf:75:c0:5a:02:75:4c:25:05:
                    6e:85:0a:8b:02:e8:1f:17:76:c5:e7:0a:ea:94:bb:
                    f8:22:2e:ca:22:d4:61:41:ad:4a:a9:7a:b6:b7:4a:
                    1d:76:51:af:78:47:d1:86:a0:09:2d:4c:ac:9e:78:
                    15:a5:ec:ba:ad:32:d3:d8:78:84:4d:e5:00:ee:62:
                    0e:53:99:a1:25:e1:37:41:41
                Exponent: 65537 (0x10001)
        X509v3 extensions:
            X509v3 Basic Constraints: 
                CA:FALSE
            Netscape Comment: 
                OpenSSL Generated Certificate
            X509v3 Subject Key Identifier: 
                0B:72:FF:8F:67:12:AD:6D:2C:7C:1B:0B:C8:8F:31:C2:50:60:88:E2
            X509v3 Authority Key Identifier: 
                keyid:2A:C4:2A:74:0B:BE:4C:13:01:29:BF:02:78:28:39:62:CC:59:ED:3A

    Signature Algorithm: sha1WithRSAEncryption
        1f:3e:2e:cc:a6:32:ca:6a:25:62:c9:b2:93:d7:0d:b1:e6:30:
        a6:c3:ca:9f:d6:c0:5a:a5:dc:94:7b:4d:e9:e1:db:82:f8:d4:
        18:04:51:02:d0:0d:7d:c0:1f:41:bb:1a:65:63:5e:1b:b1:f6:
        cf:40:5d:58:24:9a:9e:7e:a6:04:04:77:7d:57:ce:a6:61:fa:
        bf:d8:ff:1c:79:ff:c2:c9:43:6c:01:4a:9d:db:8f:42:4e:81:
        e6:9c:a4:15:10:e4:20:f6:e5:35:6b:67:45:0c:3b:ae:99:b2:
        66:06:2f:ad:e8:4a:1f:97:35:6b:ea:1f:62:79:fc:63:7c:f8:
        10:e9
-----BEGIN CERTIFICATE-----
MIICujCCAiOgAwIBAgIBATANBgkqhkiG9w0BAQUFADBcMQswCQYDVQQGEwJDTjEL
MAkGA1UECBMCQ1ExCzAJBgNVBAcTAkNRMQ0wCwYDVQQKEwR5aWppMREwDwYDVQQL
Ewh5aWppLmNvbTERMA8GA1UEAxMIeWlqaS5jb20wHhcNMTYwNTA4MDcwMjIxWhcN
MTcwNTA4MDcwMjIxWjBtMQswCQYDVQQGEwJDTjELMAkGA1UECBMCQ1ExDTALBgNV
BAoTBHlpamkxETAPBgNVBAsTCHlpamkuY29tMREwDwYDVQQDEwh5aWppLmNvbTEc
MBoGCSqGSIb3DQEJARYNa3VsaUB5aWppLmNvbTCBnzANBgkqhkiG9w0BAQEFAAOB
jQAwgYkCgYEA8yiS0ryC0jh2LpWY0S64bpJ5KWJgHMnKOOzrMC2UJZGbfj/ieHil
XOuJGZmxpo4faPDPdcBaAnVMJQVuhQqLAugfF3bF5wrqlLv4Ii7KItRhQa1KqXq2
t0oddlGveEfRhqAJLUysnngVpey6rTLT2HiETeUA7mIOU5mhJeE3QUECAwEAAaN7
MHkwCQYDVR0TBAIwADAsBglghkgBhvhCAQ0EHxYdT3BlblNTTCBHZW5lcmF0ZWQg
Q2VydGlmaWNhdGUwHQYDVR0OBBYEFAty/49nEq1tLHwbC8iPMcJQYIjiMB8GA1Ud
IwQYMBaAFCrEKnQLvkwTASm/AngoOWLMWe06MA0GCSqGSIb3DQEBBQUAA4GBAB8+
LsymMspqJWLJspPXDbHmMKbDyp/WwFql3JR7Tenh24L41BgEUQLQDX3AH0G7GmVj
Xhux9s9AXVgkmp5+pgQEd31XzqZh+r/Y/xx5/8LJQ2wBSp3bj0JOgeacpBUQ5CD2
5TVrZ0UMO66ZsmYGL63oSh+XNWvqH2J5/GN8+BDp
-----END CERTIFICATE-----
