Certificate:
    Data:
        Version: 3 (0x2)
        Serial Number: 2 (0x2)
        Signature Algorithm: sha1WithRSAEncryption
        Issuer: C=CN, ST=CQ, L=CQ, O=yiji, OU=yiji.com, CN=yiji.com
        Validity
            Not Before: May  8 08:25:27 2016 GMT
            Not After : May  8 08:25:27 2017 GMT
        Subject: C=CN, ST=CQ, O=yiji, OU=acooly.cn, CN=acooly.cn/emailAddress=zhangpu@acooly.cn
        Subject Public Key Info:
            Public Key Algorithm: rsaEncryption
            RSA Public Key: (1024 bit)
                Modulus (1024 bit):
                    00:af:61:b5:a3:e3:73:77:25:d8:bc:5a:a0:da:3f:
                    44:a3:32:a1:19:fa:a4:8f:27:f9:5a:81:ad:fe:69:
                    6e:62:8c:cd:69:87:34:c8:e2:af:db:4e:de:05:b3:
                    5e:bc:19:0f:e7:5d:14:c5:a6:15:a1:51:ff:e9:80:
                    82:b9:66:01:c0:2c:08:7a:bd:0d:47:51:60:3f:40:
                    ff:de:b8:65:f0:ab:d6:3f:e3:43:a1:82:5d:15:d4:
                    1f:52:ec:eb:66:1d:18:3c:3d:b8:b4:d4:45:be:f0:
                    63:2a:48:d6:73:aa:b5:3a:d5:82:f2:82:f5:37:0a:
                    7e:90:7d:58:f8:f2:ea:4d:e7
                Exponent: 65537 (0x10001)
        X509v3 extensions:
            X509v3 Basic Constraints: 
                CA:FALSE
            Netscape Comment: 
                OpenSSL Generated Certificate
            X509v3 Subject Key Identifier: 
                BD:3A:CF:48:50:86:6E:B6:4D:7C:B8:AB:90:05:0F:E6:96:4C:09:44
            X509v3 Authority Key Identifier: 
                keyid:2A:C4:2A:74:0B:BE:4C:13:01:29:BF:02:78:28:39:62:CC:59:ED:3A

    Signature Algorithm: sha1WithRSAEncryption
        65:41:26:7b:92:62:8e:01:c0:56:36:c3:ea:e7:0c:cb:23:de:
        44:f3:b5:9c:cf:4b:ee:35:3f:3f:e5:4d:80:23:5f:1d:d4:f2:
        1a:7d:f0:15:d9:14:2c:64:b6:2c:85:8a:6f:d4:d9:c2:cc:a3:
        00:f1:76:8e:04:48:6f:9f:48:3a:93:e1:65:72:62:4b:07:e5:
        54:7e:a8:4c:79:ad:fa:78:39:80:4e:37:c8:18:da:84:90:07:
        a3:ad:9e:80:16:ed:1f:59:0d:fc:0c:05:37:40:d4:ec:4d:66:
        04:4a:1e:72:8e:68:e6:41:42:d3:c0:8c:3f:8b:06:dd:fa:51:
        78:a7
-----BEGIN CERTIFICATE-----
MIICwDCCAimgAwIBAgIBAjANBgkqhkiG9w0BAQUFADBcMQswCQYDVQQGEwJDTjEL
MAkGA1UECBMCQ1ExCzAJBgNVBAcTAkNRMQ0wCwYDVQQKEwR5aWppMREwDwYDVQQL
Ewh5aWppLmNvbTERMA8GA1UEAxMIeWlqaS5jb20wHhcNMTYwNTA4MDgyNTI3WhcN
MTcwNTA4MDgyNTI3WjBzMQswCQYDVQQGEwJDTjELMAkGA1UECBMCQ1ExDTALBgNV
BAoTBHlpamkxEjAQBgNVBAsTCWFjb29seS5jbjESMBAGA1UEAxMJYWNvb2x5LmNu
MSAwHgYJKoZIhvcNAQkBFhF6aGFuZ3B1QGFjb29seS5jbjCBnzANBgkqhkiG9w0B
AQEFAAOBjQAwgYkCgYEAr2G1o+NzdyXYvFqg2j9EozKhGfqkjyf5WoGt/mluYozN
aYc0yOKv207eBbNevBkP510UxaYVoVH/6YCCuWYBwCwIer0NR1FgP0D/3rhl8KvW
P+NDoYJdFdQfUuzrZh0YPD24tNRFvvBjKkjWc6q1OtWC8oL1Nwp+kH1Y+PLqTecC
AwEAAaN7MHkwCQYDVR0TBAIwADAsBglghkgBhvhCAQ0EHxYdT3BlblNTTCBHZW5l
cmF0ZWQgQ2VydGlmaWNhdGUwHQYDVR0OBBYEFL06z0hQhm62TXy4q5AFD+aWTAlE
MB8GA1UdIwQYMBaAFCrEKnQLvkwTASm/AngoOWLMWe06MA0GCSqGSIb3DQEBBQUA
A4GBAGVBJnuSYo4BwFY2w+rnDMsj3kTztZzPS+41Pz/lTYAjXx3U8hp98BXZFCxk
tiyFim/U2cLMowDxdo4ESG+fSDqT4WVyYksH5VR+qEx5rfp4OYBON8gY2oSQB6Ot
noAW7R9ZDfwMBTdA1OxNZgRKHnKOaOZBQtPAjD+LBt36UXin
-----END CERTIFICATE-----
